; Function Attrs: mustprogress uwtable
define hidden void @_ZN6pj_ctx16set_search_pathsERKSt6vectorINSt7__cxx1112basic_stringIcSt11char_traitsIcESaIcEEESaIS6_EE(ptr noundef nonnull align 8 dereferenceable(516) %0, ptr noundef nonnull align 8 dereferenceable(24) %1) local_unnamed_addr #0 align 2 {
  %3 = getelementptr inbounds i8, ptr %0, i64 120
  %4 = tail call noundef nonnull align 8 dereferenceable(24) ptr @_ZNSt6vectorINSt7__cxx1112basic_stringIcSt11char_traitsIcESaIcEEESaIS5_EEaSERKS7_(ptr noundef nonnull align 8 dereferenceable(24) %3, ptr noundef nonnull align 8 dereferenceable(24) %1)
  %5 = getelementptr inbounds i8, ptr %0, i64 144
  %6 = load ptr, ptr %5, align 8
  %7 = icmp eq ptr %6, null
  br i1 %7, label %9, label %8

8:                                                ; preds = %2
  tail call void @_ZdaPv(ptr noundef nonnull %6) #19
  br label %9

9:                                                ; preds = %8, %2
  store ptr null, ptr %5, align 8
  %10 = load ptr, ptr %3, align 8
  %11 = getelementptr inbounds i8, ptr %0, i64 128
  %12 = load ptr, ptr %11, align 8
  %13 = icmp eq ptr %10, %12
  br i1 %13, label %.loopexit, label %.lr.ph.preheader

.lr.ph.preheader:                                 ; preds = %9
  %14 = ptrtoint ptr %12 to i64
  %15 = ptrtoint ptr %10 to i64
  %16 = sub i64 %14, %15
  %17 = ashr exact i64 %16, 2
  %.inv = icmp sgt i64 %16, -1
  %18 = select i1 %.inv, i64 %17, i64 -1
  %19 = tail call noalias noundef nonnull ptr @_Znam(i64 noundef %18) #18
  store ptr %19, ptr %5, align 8
  br label %.lr.ph

.lr.ph:                                           ; preds = %.lr.ph.preheader, %.lr.ph
  %20 = phi ptr [ %27, %.lr.ph ], [ %10, %.lr.ph.preheader ]
  %.06 = phi i64 [ %25, %.lr.ph ], [ 0, %.lr.ph.preheader ]
  %21 = getelementptr inbounds %"class.std::__cxx11::basic_string", ptr %20, i64 %.06
  %22 = tail call noundef ptr @_ZNKSt7__cxx1112basic_stringIcSt11char_traitsIcESaIcEE5c_strEv(ptr noundef nonnull align 8 dereferenceable(32) %21) #15
  %23 = load ptr, ptr %5, align 8
  %24 = getelementptr inbounds ptr, ptr %23, i64 %.06
  store ptr %22, ptr %24, align 8
  %25 = add nuw i64 %.06, 1
  %26 = load ptr, ptr %11, align 8
  %27 = load ptr, ptr %3, align 8
  %28 = ptrtoint ptr %26 to i64
  %29 = ptrtoint ptr %27 to i64
  %30 = sub i64 %28, %29
  %31 = ashr exact i64 %30, 5
  %32 = icmp ult i64 %25, %31
  br i1 %32, label %.lr.ph, label %.loopexit, !llvm.loop !7

.loopexit:                                        ; preds = %.lr.ph, %9
  ret void
}